target datalayout = "e-m:e-p270:32:32-p271:32:32-p272:64:64-i64:64-i128:128-f80:128-n8:16:32:64-S128"
target triple = "x86_64-pc-linux-gnu"

%"class.draco::SequentialAttributeEncoder" = type { ptr, ptr, ptr, i32, %"class.std::vector", i8, %"class.std::unique_ptr" }
%"class.std::vector" = type { %"struct.std::_Vector_base" }
%"struct.std::_Vector_base" = type { %"struct.std::_Vector_base<int, std::allocator<int>>::_Vector_impl" }
%"struct.std::_Vector_base<int, std::allocator<int>>::_Vector_impl" = type { %"struct.std::_Vector_base<int, std::allocator<int>>::_Vector_impl_data" }
%"struct.std::_Vector_base<int, std::allocator<int>>::_Vector_impl_data" = type { ptr, ptr, ptr }
%"class.std::unique_ptr" = type { %"struct.std::__uniq_ptr_data" }
%"struct.std::__uniq_ptr_data" = type { %"class.std::__uniq_ptr_impl" }
%"class.std::__uniq_ptr_impl" = type { %"class.std::tuple" }
%"class.std::tuple" = type { %"struct.std::_Tuple_impl" }
%"struct.std::_Tuple_impl" = type { %"struct.std::_Head_base.1" }
%"struct.std::_Head_base.1" = type { ptr }
%"class.draco::PointCloudEncoder" = type { ptr, ptr, %"class.std::vector.2", %"class.std::vector", %"class.std::vector", ptr, ptr, i64 }
%"class.std::vector.2" = type { %"struct.std::_Vector_base.3" }
%"struct.std::_Vector_base.3" = type { %"struct.std::_Vector_base<std::unique_ptr<draco::AttributesEncoder>, std::allocator<std::unique_ptr<draco::AttributesEncoder>>>::_Vector_impl" }
%"struct.std::_Vector_base<std::unique_ptr<draco::AttributesEncoder>, std::allocator<std::unique_ptr<draco::AttributesEncoder>>>::_Vector_impl" = type { %"struct.std::_Vector_base<std::unique_ptr<draco::AttributesEncoder>, std::allocator<std::unique_ptr<draco::AttributesEncoder>>>::_Vector_impl_data" }
%"struct.std::_Vector_base<std::unique_ptr<draco::AttributesEncoder>, std::allocator<std::unique_ptr<draco::AttributesEncoder>>>::_Vector_impl_data" = type { ptr, ptr, ptr }

; Function Attrs: mustprogress nounwind uwtable
define linkonce_odr noundef ptr @_ZNK5draco17PointCloudEncoder11point_cloudEv(ptr noundef nonnull align 8 dereferenceable(112) %0) #4 comdat align 2 {
  %2 = alloca ptr, align 8
  store ptr %0, ptr %2, align 8, !tbaa !34
  %3 = load ptr, ptr %2, align 8
  %4 = getelementptr inbounds nuw %"class.draco::PointCloudEncoder", ptr %3, i32 0, i32 1
  %5 = load ptr, ptr %4, align 8, !tbaa !36
  ret ptr %5
}

; Function Attrs: mustprogress uwtable
define noundef zeroext i1 @_ZN5draco26SequentialAttributeEncoder35SetPredictionSchemeParentAttributesEPNS_25PredictionSchemeInterfaceE(ptr noundef nonnull align 8 dereferenceable(72) %0, ptr noundef %1) unnamed_addr #5 align 2 {
  %3 = alloca i1, align 1
  %4 = alloca ptr, align 8
  %5 = alloca ptr, align 8
  %6 = alloca i32, align 4
  %7 = alloca i32, align 4
  %8 = alloca i32, align 4
  store ptr %0, ptr %4, align 8, !tbaa !3
  store ptr %1, ptr %5, align 8, !tbaa !100
  %9 = load ptr, ptr %4, align 8
  call void @llvm.lifetime.start.p0(i64 4, ptr %6) #3
  store i32 0, ptr %6, align 4, !tbaa !35
  br label %10

10:                                               ; preds = %48, %2
  %11 = load i32, ptr %6, align 4, !tbaa !35
  %12 = load ptr, ptr %5, align 8, !tbaa !100
  %13 = load ptr, ptr %12, align 8, !tbaa !8
  %14 = getelementptr inbounds ptr, ptr %13, i64 5
  %15 = load ptr, ptr %14, align 8
  %16 = call noundef i32 %15(ptr noundef nonnull align 8 dereferenceable(8) %12)
  %17 = icmp slt i32 %11, %16
  br i1 %17, label %19, label %18

18:                                               ; preds = %10
  store i32 2, ptr %7, align 4
  br label %51

19:                                               ; preds = %10
  call void @llvm.lifetime.start.p0(i64 4, ptr %8) #3
  %20 = getelementptr inbounds nuw %"class.draco::SequentialAttributeEncoder", ptr %9, i32 0, i32 1
  %21 = load ptr, ptr %20, align 8, !tbaa !10
  %22 = call noundef ptr @_ZNK5draco17PointCloudEncoder11point_cloudEv(ptr noundef nonnull align 8 dereferenceable(112) %21)
  %23 = load ptr, ptr %5, align 8, !tbaa !100
  %24 = load i32, ptr %6, align 4, !tbaa !35
  %25 = load ptr, ptr %23, align 8, !tbaa !8
  %26 = getelementptr inbounds ptr, ptr %25, i64 6
  %27 = load ptr, ptr %26, align 8
  %28 = call noundef i32 %27(ptr noundef nonnull align 8 dereferenceable(8) %23, i32 noundef %24)
  %29 = call noundef i32 @_ZNK5draco10PointCloud19GetNamedAttributeIdENS_17GeometryAttribute4TypeE(ptr noundef nonnull align 8 dereferenceable(164) %22, i32 noundef %28)
  store i32 %29, ptr %8, align 4, !tbaa !35
  %30 = load i32, ptr %8, align 4, !tbaa !35
  %31 = icmp eq i32 %30, -1
  br i1 %31, label %32, label %33

32:                                               ; preds = %19
  store i1 false, ptr %3, align 1
  store i32 1, ptr %7, align 4
  br label %45

33:                                               ; preds = %19
  %34 = load ptr, ptr %5, align 8, !tbaa !100
  %35 = getelementptr inbounds nuw %"class.draco::SequentialAttributeEncoder", ptr %9, i32 0, i32 1
  %36 = load ptr, ptr %35, align 8, !tbaa !10
  %37 = load i32, ptr %8, align 4, !tbaa !35
  %38 = call noundef ptr @_ZN5draco17PointCloudEncoder20GetPortableAttributeEi(ptr noundef nonnull align 8 dereferenceable(112) %36, i32 noundef %37)
  %39 = load ptr, ptr %34, align 8, !tbaa !8
  %40 = getelementptr inbounds ptr, ptr %39, i64 7
  %41 = load ptr, ptr %40, align 8
  %42 = call noundef zeroext i1 %41(ptr noundef nonnull align 8 dereferenceable(8) %34, ptr noundef %38)
  br i1 %42, label %44, label %43

43:                                               ; preds = %33
  store i1 false, ptr %3, align 1
  store i32 1, ptr %7, align 4
  br label %45

44:                                               ; preds = %33
  store i32 0, ptr %7, align 4
  br label %45

45:                                               ; preds = %44, %43, %32
  call void @llvm.lifetime.end.p0(i64 4, ptr %8) #3
  %46 = load i32, ptr %7, align 4
  switch i32 %46, label %51 [
    i32 0, label %47
  ]

47:                                               ; preds = %45
  br label %48

48:                                               ; preds = %47
  %49 = load i32, ptr %6, align 4, !tbaa !35
  %50 = add nsw i32 %49, 1
  store i32 %50, ptr %6, align 4, !tbaa !35
  br label %10, !llvm.loop !106

51:                                               ; preds = %45, %18
  call void @llvm.lifetime.end.p0(i64 4, ptr %6) #3
  %52 = load i32, ptr %7, align 4
  switch i32 %52, label %56 [
    i32 2, label %53
    i32 1, label %54
  ]

53:                                               ; preds = %51
  store i1 true, ptr %3, align 1
  br label %54

54:                                               ; preds = %53, %51
  %55 = load i1, ptr %3, align 1
  ret i1 %55

56:                                               ; preds = %51
  unreachable
}