; Function Attrs: mustprogress uwtable
define noundef zeroext i1 @_ZN5draco26SequentialAttributeEncoder35SetPredictionSchemeParentAttributesEPNS_25PredictionSchemeInterfaceE(ptr noundef nonnull readonly align 8 captures(none) dereferenceable(72) %0, ptr noundef %1) unnamed_addr #6 align 2 {
  %3 = getelementptr inbounds nuw i8, ptr %0, i64 8
  %4 = load ptr, ptr %1, align 8, !tbaa !3
  %5 = getelementptr inbounds nuw i8, ptr %4, i64 40
  %6 = load ptr, ptr %5, align 8
  %7 = tail call noundef i32 %6(ptr noundef nonnull align 8 dereferenceable(8) %1)
  %8 = icmp slt i32 %7, 1
  br i1 %8, label %.critedge, label %.lr.ph

9:                                                ; preds = %24
  %10 = add nuw nsw i32 %.01315, 1
  %11 = load ptr, ptr %1, align 8, !tbaa !3
  %12 = getelementptr inbounds nuw i8, ptr %11, i64 40
  %13 = load ptr, ptr %12, align 8
  %14 = tail call noundef i32 %13(ptr noundef nonnull align 8 dereferenceable(8) %1)
  %.not = icmp slt i32 %10, %14
  br i1 %.not, label %.lr.ph, label %.critedge, !llvm.loop !104

.lr.ph:                                           ; preds = %2, %9
  %.01315 = phi i32 [ %10, %9 ], [ 0, %2 ]
  %15 = load ptr, ptr %3, align 8, !tbaa !26
  %16 = getelementptr inbounds nuw i8, ptr %15, i64 8
  %17 = load ptr, ptr %16, align 8, !tbaa !27
  %18 = load ptr, ptr %1, align 8, !tbaa !3
  %19 = getelementptr inbounds nuw i8, ptr %18, i64 48
  %20 = load ptr, ptr %19, align 8
  %21 = tail call noundef i32 %20(ptr noundef nonnull align 8 dereferenceable(8) %1, i32 noundef %.01315)
  %22 = tail call noundef i32 @_ZNK5draco10PointCloud19GetNamedAttributeIdENS_17GeometryAttribute4TypeE(ptr noundef nonnull align 8 dereferenceable(164) %17, i32 noundef %21)
  %23 = icmp eq i32 %22, -1
  br i1 %23, label %.critedge, label %24

24:                                               ; preds = %.lr.ph
  %25 = load ptr, ptr %3, align 8, !tbaa !26
  %26 = tail call noundef ptr @_ZN5draco17PointCloudEncoder20GetPortableAttributeEi(ptr noundef nonnull align 8 dereferenceable(112) %25, i32 noundef %22)
  %27 = load ptr, ptr %1, align 8, !tbaa !3
  %28 = getelementptr inbounds nuw i8, ptr %27, i64 56
  %29 = load ptr, ptr %28, align 8
  %30 = tail call noundef zeroext i1 %29(ptr noundef nonnull align 8 dereferenceable(8) %1, ptr noundef %26)
  br i1 %30, label %9, label %.critedge

.critedge:                                        ; preds = %24, %9, %.lr.ph, %2
  %.lcssa = phi i1 [ true, %2 ], [ false, %.lr.ph ], [ true, %9 ], [ false, %24 ]
  ret i1 %.lcssa
}